; Function Attrs: mustprogress nounwind uwtable
define internal fastcc void @_ZN12_GLOBAL__N_111StmtPrinter14VisitLabelStmtEPN5clang9LabelStmtE(ptr noundef nonnull align 8 dereferenceable(80) %0, ptr noundef %1) unnamed_addr #0 align 2 {
  %3 = getelementptr inbounds nuw i8, ptr %0, i64 8
  %4 = load i32, ptr %3, align 8
  %5 = add i32 %4, -1
  %6 = icmp sgt i32 %5, 0
  br i1 %6, label %.lr.ph.i, label %_ZN12_GLOBAL__N_111StmtPrinter6IndentEi.exit

.lr.ph.i:                                         ; preds = %2, %_ZN4llvm11raw_ostreamlsEPKc.exit.i
  %.04.i = phi i32 [ %21, %_ZN4llvm11raw_ostreamlsEPKc.exit.i ], [ 0, %2 ]
  %7 = load ptr, ptr %0, align 8
  %8 = getelementptr inbounds nuw i8, ptr %7, i64 24
  %9 = load ptr, ptr %8, align 8
  %10 = getelementptr inbounds nuw i8, ptr %7, i64 32
  %11 = load ptr, ptr %10, align 8
  %12 = ptrtoint ptr %9 to i64
  %13 = ptrtoint ptr %11 to i64
  %14 = sub i64 %12, %13
  %15 = icmp ult i64 %14, 2
  br i1 %15, label %16, label %18

16:                                               ; preds = %.lr.ph.i
  %17 = tail call noundef nonnull align 8 dereferenceable(48) ptr @_ZN4llvm11raw_ostream5writeEPKcm(ptr noundef nonnull align 8 dereferenceable(48) %7, ptr noundef nonnull @.str.3, i64 noundef 2) #19
  br label %_ZN4llvm11raw_ostreamlsEPKc.exit.i

18:                                               ; preds = %.lr.ph.i
  store i16 8224, ptr %11, align 1
  %19 = load ptr, ptr %10, align 8
  %20 = getelementptr inbounds nuw i8, ptr %19, i64 2
  store ptr %20, ptr %10, align 8
  br label %_ZN4llvm11raw_ostreamlsEPKc.exit.i

_ZN4llvm11raw_ostreamlsEPKc.exit.i:               ; preds = %18, %16
  %21 = add nuw nsw i32 %.04.i, 1
  %exitcond.not.i = icmp eq i32 %21, %5
  br i1 %exitcond.not.i, label %_ZN12_GLOBAL__N_111StmtPrinter6IndentEi.exit, label %.lr.ph.i, !llvm.loop !16

_ZN12_GLOBAL__N_111StmtPrinter6IndentEi.exit:     ; preds = %_ZN4llvm11raw_ostreamlsEPKc.exit.i, %2
  %22 = load ptr, ptr %0, align 8
  %23 = tail call noundef ptr @_ZNK5clang9LabelStmt7getNameEv(ptr noundef nonnull align 8 dereferenceable(25) %1) #19
  %.not.i.i = icmp eq ptr %23, null
  br i1 %.not.i.i, label %_ZN4llvm11raw_ostreamlsEPKc.exit, label %_ZN4llvm9StringRefC2EPKc.exit.i

_ZN4llvm9StringRefC2EPKc.exit.i:                  ; preds = %_ZN12_GLOBAL__N_111StmtPrinter6IndentEi.exit
  %24 = tail call noundef i64 @strlen(ptr noundef nonnull dereferenceable(1) %23) #19
  %25 = getelementptr inbounds nuw i8, ptr %22, i64 24
  %26 = load ptr, ptr %25, align 8
  %27 = getelementptr inbounds nuw i8, ptr %22, i64 32
  %28 = load ptr, ptr %27, align 8
  %29 = ptrtoint ptr %26 to i64
  %30 = ptrtoint ptr %28 to i64
  %31 = sub i64 %29, %30
  %32 = icmp ugt i64 %24, %31
  br i1 %32, label %33, label %35

33:                                               ; preds = %_ZN4llvm9StringRefC2EPKc.exit.i
  %34 = tail call noundef nonnull align 8 dereferenceable(48) ptr @_ZN4llvm11raw_ostream5writeEPKcm(ptr noundef nonnull align 8 dereferenceable(48) %22, ptr noundef nonnull %23, i64 noundef %24) #19
  br label %_ZN4llvm11raw_ostreamlsEPKc.exit

35:                                               ; preds = %_ZN4llvm9StringRefC2EPKc.exit.i
  %.not.i2.i = icmp eq i64 %24, 0
  br i1 %.not.i2.i, label %_ZN4llvm11raw_ostreamlsEPKc.exit, label %36

36:                                               ; preds = %35
  tail call void @llvm.memcpy.p0.p0.i64(ptr align 1 %28, ptr nonnull align 1 %23, i64 %24, i1 false)
  %37 = load ptr, ptr %27, align 8
  %38 = getelementptr inbounds i8, ptr %37, i64 %24
  store ptr %38, ptr %27, align 8
  br label %_ZN4llvm11raw_ostreamlsEPKc.exit

_ZN4llvm11raw_ostreamlsEPKc.exit:                 ; preds = %_ZN12_GLOBAL__N_111StmtPrinter6IndentEi.exit, %33, %35, %36
  %.0.i.i = phi ptr [ %34, %33 ], [ %22, %36 ], [ %22, %35 ], [ %22, %_ZN12_GLOBAL__N_111StmtPrinter6IndentEi.exit ]
  %39 = getelementptr inbounds nuw i8, ptr %.0.i.i, i64 24
  %40 = load ptr, ptr %39, align 8
  %41 = getelementptr inbounds nuw i8, ptr %.0.i.i, i64 32
  %42 = load ptr, ptr %41, align 8
  %43 = icmp eq ptr %40, %42
  br i1 %43, label %44, label %46

44:                                               ; preds = %_ZN4llvm11raw_ostreamlsEPKc.exit
  %45 = tail call noundef nonnull align 8 dereferenceable(48) ptr @_ZN4llvm11raw_ostream5writeEPKcm(ptr noundef nonnull align 8 dereferenceable(48) %.0.i.i, ptr noundef nonnull @.str.7, i64 noundef 1) #19
  br label %_ZN4llvm11raw_ostreamlsEPKc.exit6

46:                                               ; preds = %_ZN4llvm11raw_ostreamlsEPKc.exit
  store i8 58, ptr %42, align 1
  %47 = load ptr, ptr %41, align 8
  %48 = getelementptr inbounds nuw i8, ptr %47, i64 1
  store ptr %48, ptr %41, align 8
  br label %_ZN4llvm11raw_ostreamlsEPKc.exit6

_ZN4llvm11raw_ostreamlsEPKc.exit6:                ; preds = %44, %46
  %.0.i.i5 = phi ptr [ %45, %44 ], [ %.0.i.i, %46 ]
  %49 = getelementptr inbounds nuw i8, ptr %0, i64 40
  %50 = tail call noundef ptr @_ZNKSt7__cxx1112basic_stringIcSt11char_traitsIcESaIcEE4dataEv(ptr noundef nonnull align 8 dereferenceable(32) %49) #19
  %51 = tail call noundef i64 @_ZNKSt7__cxx1112basic_stringIcSt11char_traitsIcESaIcEE6lengthEv(ptr noundef nonnull align 8 dereferenceable(32) %49) #19
  %52 = tail call noundef nonnull align 8 dereferenceable(48) ptr @_ZN4llvm11raw_ostream5writeEPKcm(ptr noundef nonnull align 8 dereferenceable(48) %.0.i.i5, ptr noundef %50, i64 noundef %51) #19
  %53 = getelementptr inbounds nuw i8, ptr %1, i64 16
  %54 = load ptr, ptr %53, align 8
  tail call fastcc void @_ZN12_GLOBAL__N_111StmtPrinter9PrintStmtEPN5clang4StmtEi(ptr noundef nonnull align 8 dereferenceable(80) %0, ptr noundef %54, i32 noundef 0)
  ret void
}